; Function Attrs: noreturn nounwind uwtable
define void @png_longjmp(ptr noalias noundef readonly captures(address_is_null) %0, i32 noundef %1) local_unnamed_addr #0 {
  %.not = icmp eq ptr %0, null
  br i1 %.not, label %10, label %3

3:                                                ; preds = %2
  %4 = getelementptr inbounds nuw i8, ptr %0, i64 200
  %5 = load ptr, ptr %4, align 8, !tbaa !75
  %.not7 = icmp eq ptr %5, null
  br i1 %.not7, label %10, label %6

6:                                                ; preds = %3
  %7 = getelementptr inbounds nuw i8, ptr %0, i64 208
  %8 = load ptr, ptr %7, align 8, !tbaa !70
  %.not8 = icmp eq ptr %8, null
  br i1 %.not8, label %10, label %9

9:                                                ; preds = %6
  tail call void %5(ptr noundef nonnull %8, i32 noundef %1) #21
  br label %10

10:                                               ; preds = %9, %6, %3, %2
  tail call void @abort() #25
  unreachable
}